; Function Attrs: alwaysinline norecurse nounwind uwtable
define internal void @_ZN8LightGBM16MultiValDenseBinIjE9CopyInnerILb0ELb1EEEvPKNS_11MultiValBinEPKiiRKSt6vectorIiSaIiEE.omp_outlined(ptr noalias noundef readonly captures(none) %0, ptr noalias readnone captures(none) %1, ptr noundef nonnull readonly align 4 captures(none) dereferenceable(4) %2, ptr noundef nonnull readonly align 4 captures(none) dereferenceable(4) %3, ptr noundef readonly captures(none) %4, ptr noundef nonnull readonly align 8 captures(none) dereferenceable(8) %5, ptr nonnull readnone align 8 captures(none) %6, ptr noundef nonnull readonly align 8 captures(none) dereferenceable(24) %7) #21 {
  %9 = alloca i32, align 4
  %10 = alloca i32, align 4
  %11 = alloca i32, align 4
  %12 = alloca i32, align 4
  %13 = load i32, ptr %2, align 4, !tbaa !10
  %14 = add nsw i32 %13, -1
  %15 = icmp sgt i32 %13, 0
  br i1 %15, label %16, label %71

16:                                               ; preds = %8
  call void @llvm.lifetime.start.p0(i64 4, ptr nonnull %9) #22
  store i32 0, ptr %9, align 4, !tbaa !10
  call void @llvm.lifetime.start.p0(i64 4, ptr nonnull %10) #22
  store i32 %14, ptr %10, align 4, !tbaa !10
  call void @llvm.lifetime.start.p0(i64 4, ptr nonnull %11) #22
  store i32 1, ptr %11, align 4, !tbaa !10
  call void @llvm.lifetime.start.p0(i64 4, ptr nonnull %12) #22
  store i32 0, ptr %12, align 4, !tbaa !10
  %17 = load i32, ptr %0, align 4, !tbaa !10
  call void @__kmpc_for_static_init_4(ptr nonnull @1, i32 %17, i32 33, ptr nonnull %12, ptr nonnull %9, ptr nonnull %10, ptr nonnull %11, i32 1, i32 1)
  %18 = load i32, ptr %10, align 4, !tbaa !10
  %19 = call i32 @llvm.smin.i32(i32 %18, i32 %14)
  store i32 %19, ptr %10, align 4, !tbaa !10
  %20 = load i32, ptr %9, align 4, !tbaa !10
  %.not50 = icmp sgt i32 %20, %19
  br i1 %.not50, label %._crit_edge51, label %.preheader.lr.ph

.preheader.lr.ph:                                 ; preds = %16
  %21 = getelementptr inbounds nuw i8, ptr %4, i64 8
  %22 = getelementptr inbounds nuw i8, ptr %4, i64 16
  %23 = getelementptr inbounds nuw i8, ptr %4, i64 48
  br label %.preheader

.preheader:                                       ; preds = %.preheader.lr.ph, %._crit_edge49
  %24 = phi i32 [ %19, %.preheader.lr.ph ], [ %70, %._crit_edge49 ]
  %25 = phi i32 [ %20, %.preheader.lr.ph ], [ %68, %._crit_edge49 ]
  %.not3846 = icmp sgt i32 %25, %24
  br i1 %.not3846, label %._crit_edge49, label %.lr.ph48

.lr.ph48:                                         ; preds = %.preheader
  %26 = load ptr, ptr %5, align 8
  %27 = getelementptr inbounds nuw i8, ptr %26, i64 16
  %28 = getelementptr inbounds nuw i8, ptr %26, i64 48
  br label %29

29:                                               ; preds = %.lr.ph48, %._crit_edge45
  %30 = phi i32 [ %24, %.lr.ph48 ], [ %41, %._crit_edge45 ]
  %.03547 = phi i32 [ %25, %.lr.ph48 ], [ %42, %._crit_edge45 ]
  %31 = load i32, ptr %3, align 4, !tbaa !10
  %32 = mul nsw i32 %31, %.03547
  %33 = add nsw i32 %32, %31
  %34 = load i32, ptr %21, align 4, !tbaa !10
  %.sroa.speculated = call i32 @llvm.smin.i32(i32 %33, i32 %34)
  %35 = icmp slt i32 %32, %.sroa.speculated
  br i1 %35, label %.lr.ph44, label %._crit_edge45

.lr.ph44:                                         ; preds = %29
  %36 = load ptr, ptr %7, align 8
  %37 = load i32, ptr %22, align 8, !tbaa !513
  %38 = icmp sgt i32 %37, 0
  br i1 %38, label %.lr.ph44.split.preheader, label %._crit_edge45

.lr.ph44.split.preheader:                         ; preds = %.lr.ph44
  %39 = sext i32 %32 to i64
  %40 = sext i32 %.sroa.speculated to i64
  br label %.lr.ph44.split

._crit_edge45.loopexit:                           ; preds = %._crit_edge
  %.pre = load i32, ptr %10, align 4, !tbaa !10
  br label %._crit_edge45

._crit_edge45:                                    ; preds = %.lr.ph44, %._crit_edge45.loopexit, %29
  %41 = phi i32 [ %.pre, %._crit_edge45.loopexit ], [ %30, %29 ], [ %30, %.lr.ph44 ]
  %42 = add nsw i32 %.03547, 1
  %.not38.not = icmp slt i32 %.03547, %41
  br i1 %.not38.not, label %29, label %._crit_edge49.loopexit

.lr.ph44.split:                                   ; preds = %.lr.ph44.split.preheader, %._crit_edge
  %43 = phi i32 [ %37, %.lr.ph44.split.preheader ], [ %54, %._crit_edge ]
  %indvars.iv55 = phi i64 [ %39, %.lr.ph44.split.preheader ], [ %indvars.iv.next56, %._crit_edge ]
  %44 = sext i32 %43 to i64
  %45 = mul nsw i64 %indvars.iv55, %44
  %46 = icmp sgt i32 %43, 0
  br i1 %46, label %.lr.ph, label %._crit_edge

.lr.ph:                                           ; preds = %.lr.ph44.split
  %47 = load i32, ptr %27, align 8, !tbaa !513
  %48 = sext i32 %47 to i64
  %49 = mul nsw i64 %indvars.iv55, %48
  %50 = load ptr, ptr %28, align 8, !tbaa !171
  %51 = getelementptr i32, ptr %50, i64 %49
  %52 = load ptr, ptr %23, align 8, !tbaa !171
  %53 = getelementptr i32, ptr %52, i64 %45
  br label %56

._crit_edge:                                      ; preds = %56, %.lr.ph44.split
  %54 = phi i32 [ %43, %.lr.ph44.split ], [ %63, %56 ]
  %indvars.iv.next56 = add nsw i64 %indvars.iv55, 1
  %55 = icmp slt i64 %indvars.iv.next56, %40
  br i1 %55, label %.lr.ph44.split, label %._crit_edge45.loopexit, !llvm.loop !933

56:                                               ; preds = %.lr.ph, %56
  %indvars.iv = phi i64 [ 0, %.lr.ph ], [ %indvars.iv.next, %56 ]
  %57 = getelementptr inbounds nuw i32, ptr %36, i64 %indvars.iv
  %58 = load i32, ptr %57, align 4, !tbaa !10
  %59 = sext i32 %58 to i64
  %60 = getelementptr i32, ptr %51, i64 %59
  %61 = load i32, ptr %60, align 4, !tbaa !10
  %62 = getelementptr i32, ptr %53, i64 %indvars.iv
  store i32 %61, ptr %62, align 4, !tbaa !10
  %indvars.iv.next = add nuw nsw i64 %indvars.iv, 1
  %63 = load i32, ptr %22, align 8, !tbaa !513
  %64 = sext i32 %63 to i64
  %65 = icmp slt i64 %indvars.iv.next, %64
  br i1 %65, label %56, label %._crit_edge, !llvm.loop !934

._crit_edge49.loopexit:                           ; preds = %._crit_edge45
  %.pre58 = load i32, ptr %9, align 4, !tbaa !10
  br label %._crit_edge49

._crit_edge49:                                    ; preds = %._crit_edge49.loopexit, %.preheader
  %66 = phi i32 [ %25, %.preheader ], [ %.pre58, %._crit_edge49.loopexit ]
  %.lcssa = phi i32 [ %24, %.preheader ], [ %41, %._crit_edge49.loopexit ]
  %67 = load i32, ptr %11, align 4, !tbaa !10
  %68 = add nsw i32 %67, %66
  store i32 %68, ptr %9, align 4, !tbaa !10
  %69 = add nsw i32 %67, %.lcssa
  %70 = call i32 @llvm.smin.i32(i32 %69, i32 %14)
  store i32 %70, ptr %10, align 4, !tbaa !10
  %.not = icmp sgt i32 %68, %70
  br i1 %.not, label %._crit_edge51, label %.preheader

._crit_edge51:                                    ; preds = %._crit_edge49, %16
  call void @__kmpc_for_static_fini(ptr nonnull @1, i32 %17)
  call void @llvm.lifetime.end.p0(i64 4, ptr nonnull %12) #22
  call void @llvm.lifetime.end.p0(i64 4, ptr nonnull %11) #22
  call void @llvm.lifetime.end.p0(i64 4, ptr nonnull %10) #22
  call void @llvm.lifetime.end.p0(i64 4, ptr nonnull %9) #22
  br label %71

71:                                               ; preds = %._crit_edge51, %8
  ret void
}